#include <math.h>
#include <stdio.h>
#include <stdlib.h>
#include <string.h>
#include <iostream>
using namespace std;

//????

//?????
int ana(int n,int p)
{
	int i;
	int t,s=1;
	t=pow(n,0.5);
	for(i=p;i<=t;i++)
		if(n%i==0)
			s=s+ana(n/i,i);//??
	return s;
}
//???
int main()
{
	int n;
	int a[100];
	int i;
	cin>>n;
	for(i=0;i<n;i++)
		cin>>a[i];
	for(i=0;i<n;i++)
		cout<<ana(a[i],2)<<endl;//????
	return 0;
}
